; Function Attrs: nounwind uwtable
define internal range(i32 0, 2) i32 @seed_src_get_ctx_params(ptr noundef readonly captures(none) %0, ptr noundef %1) #0 {
  %3 = tail call ptr @OSSL_PARAM_locate(ptr noundef %1, ptr noundef nonnull @.str.1) #5
  %.not = icmp eq ptr %3, null
  br i1 %.not, label %8, label %4

4:                                                ; preds = %2
  %5 = getelementptr inbounds nuw i8, ptr %0, i64 8
  %6 = load i32, ptr %5, align 8, !tbaa !9
  %7 = tail call i32 @OSSL_PARAM_set_int(ptr noundef nonnull %3, i32 noundef %6) #5
  %.not14 = icmp eq i32 %7, 0
  br i1 %.not14, label %17, label %8

8:                                                ; preds = %4, %2
  %9 = tail call ptr @OSSL_PARAM_locate(ptr noundef %1, ptr noundef nonnull @.str.2) #5
  %.not15 = icmp eq ptr %9, null
  br i1 %.not15, label %12, label %10

10:                                               ; preds = %8
  %11 = tail call i32 @OSSL_PARAM_set_int(ptr noundef nonnull %9, i32 noundef 1024) #5
  %.not16 = icmp eq i32 %11, 0
  br i1 %.not16, label %17, label %12

12:                                               ; preds = %10, %8
  %13 = tail call ptr @OSSL_PARAM_locate(ptr noundef %1, ptr noundef nonnull @.str.3) #5
  %.not17 = icmp eq ptr %13, null
  br i1 %.not17, label %16, label %14

14:                                               ; preds = %12
  %15 = tail call i32 @OSSL_PARAM_set_size_t(ptr noundef nonnull %13, i64 noundef 128) #5
  %.not18 = icmp eq i32 %15, 0
  br i1 %.not18, label %17, label %16

16:                                               ; preds = %14, %12
  br label %17

17:                                               ; preds = %14, %10, %4, %16
  %.0 = phi i32 [ 1, %16 ], [ 0, %4 ], [ 0, %10 ], [ 0, %14 ]
  ret i32 %.0
}